target datalayout = "e-m:e-p270:32:32-p271:32:32-p272:64:64-i64:64-i128:128-f80:128-n8:16:32:64-S128"
target triple = "x86_64-pc-linux-gnu"

%struct.Ivy_Obj_t_ = type { i32, i32, i32, i32, ptr, ptr, ptr, ptr, ptr, ptr, ptr, ptr }

; Function Attrs: nounwind uwtable
define internal i32 @Ivy_ObjIsExor(ptr noundef %0) #0 {
  %2 = alloca ptr, align 8
  store ptr %0, ptr %2, align 8
  %3 = load ptr, ptr %2, align 8
  %4 = getelementptr inbounds %struct.Ivy_Obj_t_, ptr %3, i32 0, i32 2
  %5 = load i32, ptr %4, align 8
  %6 = and i32 %5, 15
  %7 = icmp eq i32 %6, 6
  %8 = zext i1 %7 to i32
  ret i32 %8
}

; Function Attrs: nounwind uwtable
define internal ptr @Ivy_Regular(ptr noundef %0) #0 {
  %2 = alloca ptr, align 8
  store ptr %0, ptr %2, align 8
  %3 = load ptr, ptr %2, align 8
  %4 = ptrtoint ptr %3 to i64
  %5 = and i64 %4, -2
  %6 = inttoptr i64 %5 to ptr
  ret ptr %6
}

; Function Attrs: nounwind uwtable
define internal i32 @Ivy_ObjLevelNew(ptr noundef %0) #0 {
  %2 = alloca ptr, align 8
  store ptr %0, ptr %2, align 8
  %3 = load ptr, ptr %2, align 8
  %4 = call i32 @Ivy_ObjIsExor(ptr noundef %3)
  %5 = add nsw i32 1, %4
  %6 = load ptr, ptr %2, align 8
  %7 = call ptr @Ivy_ObjFanin0(ptr noundef %6)
  %8 = getelementptr inbounds %struct.Ivy_Obj_t_, ptr %7, i32 0, i32 2
  %9 = load i32, ptr %8, align 8
  %10 = lshr i32 %9, 11
  %11 = load ptr, ptr %2, align 8
  %12 = call ptr @Ivy_ObjFanin1(ptr noundef %11)
  %13 = getelementptr inbounds %struct.Ivy_Obj_t_, ptr %12, i32 0, i32 2
  %14 = load i32, ptr %13, align 8
  %15 = lshr i32 %14, 11
  %16 = icmp sgt i32 %10, %15
  br i1 %16, label %17, label %23

17:                                               ; preds = %1
  %18 = load ptr, ptr %2, align 8
  %19 = call ptr @Ivy_ObjFanin0(ptr noundef %18)
  %20 = getelementptr inbounds %struct.Ivy_Obj_t_, ptr %19, i32 0, i32 2
  %21 = load i32, ptr %20, align 8
  %22 = lshr i32 %21, 11
  br label %29

23:                                               ; preds = %1
  %24 = load ptr, ptr %2, align 8
  %25 = call ptr @Ivy_ObjFanin1(ptr noundef %24)
  %26 = getelementptr inbounds %struct.Ivy_Obj_t_, ptr %25, i32 0, i32 2
  %27 = load i32, ptr %26, align 8
  %28 = lshr i32 %27, 11
  br label %29

29:                                               ; preds = %23, %17
  %30 = phi i32 [ %22, %17 ], [ %28, %23 ]
  %31 = add nsw i32 %5, %30
  ret i32 %31
}

; Function Attrs: nounwind uwtable
define internal ptr @Ivy_ObjFanin1(ptr noundef %0) #0 {
  %2 = alloca ptr, align 8
  store ptr %0, ptr %2, align 8
  %3 = load ptr, ptr %2, align 8
  %4 = getelementptr inbounds %struct.Ivy_Obj_t_, ptr %3, i32 0, i32 5
  %5 = load ptr, ptr %4, align 8
  %6 = call ptr @Ivy_Regular(ptr noundef %5)
  ret ptr %6
}

; Function Attrs: nounwind uwtable
define internal ptr @Ivy_ObjFanin0(ptr noundef %0) #0 {
  %2 = alloca ptr, align 8
  store ptr %0, ptr %2, align 8
  %3 = load ptr, ptr %2, align 8
  %4 = getelementptr inbounds %struct.Ivy_Obj_t_, ptr %3, i32 0, i32 4
  %5 = load ptr, ptr %4, align 8
  %6 = call ptr @Ivy_Regular(ptr noundef %5)
  ret ptr %6
}

; Function Attrs: nounwind uwtable
define internal i32 @Ivy_ObjIsBuf(ptr noundef %0) #0 {
  %2 = alloca ptr, align 8
  store ptr %0, ptr %2, align 8
  %3 = load ptr, ptr %2, align 8
  %4 = getelementptr inbounds %struct.Ivy_Obj_t_, ptr %3, i32 0, i32 2
  %5 = load i32, ptr %4, align 8
  %6 = and i32 %5, 15
  %7 = icmp eq i32 %6, 7
  %8 = zext i1 %7 to i32
  ret i32 %8
}

; Function Attrs: nounwind uwtable
define internal i32 @Ivy_ObjIsConst1(ptr noundef %0) #0 {
  %2 = alloca ptr, align 8
  store ptr %0, ptr %2, align 8
  %3 = load ptr, ptr %2, align 8
  %4 = getelementptr inbounds %struct.Ivy_Obj_t_, ptr %3, i32 0, i32 0
  %5 = load i32, ptr %4, align 8
  %6 = icmp eq i32 %5, 0
  %7 = zext i1 %6 to i32
  ret i32 %7
}

; Function Attrs: nounwind uwtable
define internal i32 @Ivy_ObjIsCi(ptr noundef %0) #0 {
  %2 = alloca ptr, align 8
  store ptr %0, ptr %2, align 8
  %3 = load ptr, ptr %2, align 8
  %4 = getelementptr inbounds %struct.Ivy_Obj_t_, ptr %3, i32 0, i32 2
  %5 = load i32, ptr %4, align 8
  %6 = and i32 %5, 15
  %7 = icmp eq i32 %6, 1
  br i1 %7, label %14, label %8

8:                                                ; preds = %1
  %9 = load ptr, ptr %2, align 8
  %10 = getelementptr inbounds %struct.Ivy_Obj_t_, ptr %9, i32 0, i32 2
  %11 = load i32, ptr %10, align 8
  %12 = and i32 %11, 15
  %13 = icmp eq i32 %12, 4
  br label %14

14:                                               ; preds = %8, %1
  %15 = phi i1 [ true, %1 ], [ %13, %8 ]
  %16 = zext i1 %15 to i32
  ret i32 %16
}

; Function Attrs: nounwind uwtable
define i32 @Ivy_ManResetLevels_rec(ptr noundef %0) #0 {
  %2 = alloca i32, align 4
  %3 = alloca ptr, align 8
  store ptr %0, ptr %3, align 8
  %4 = load ptr, ptr %3, align 8
  %5 = getelementptr inbounds %struct.Ivy_Obj_t_, ptr %4, i32 0, i32 2
  %6 = load i32, ptr %5, align 8
  %7 = lshr i32 %6, 11
  %8 = icmp ne i32 %7, 0
  br i1 %8, label %17, label %9

9:                                                ; preds = %1
  %10 = load ptr, ptr %3, align 8
  %11 = call i32 @Ivy_ObjIsCi(ptr noundef %10)
  %12 = icmp ne i32 %11, 0
  br i1 %12, label %17, label %13

13:                                               ; preds = %9
  %14 = load ptr, ptr %3, align 8
  %15 = call i32 @Ivy_ObjIsConst1(ptr noundef %14)
  %16 = icmp ne i32 %15, 0
  br i1 %16, label %17, label %22

17:                                               ; preds = %13, %9, %1
  %18 = load ptr, ptr %3, align 8
  %19 = getelementptr inbounds %struct.Ivy_Obj_t_, ptr %18, i32 0, i32 2
  %20 = load i32, ptr %19, align 8
  %21 = lshr i32 %20, 11
  store i32 %21, ptr %2, align 4
  br label %53

22:                                               ; preds = %13
  %23 = load ptr, ptr %3, align 8
  %24 = call i32 @Ivy_ObjIsBuf(ptr noundef %23)
  %25 = icmp ne i32 %24, 0
  br i1 %25, label %26, label %37

26:                                               ; preds = %22
  %27 = load ptr, ptr %3, align 8
  %28 = call ptr @Ivy_ObjFanin0(ptr noundef %27)
  %29 = call i32 @Ivy_ManResetLevels_rec(ptr noundef %28)
  %30 = load ptr, ptr %3, align 8
  %31 = getelementptr inbounds %struct.Ivy_Obj_t_, ptr %30, i32 0, i32 2
  %32 = load i32, ptr %31, align 8
  %33 = and i32 %29, 2097151
  %34 = shl i32 %33, 11
  %35 = and i32 %32, 2047
  %36 = or i32 %35, %34
  store i32 %36, ptr %31, align 8
  store i32 %33, ptr %2, align 4
  br label %53

37:                                               ; preds = %22
  %38 = load ptr, ptr %3, align 8
  %39 = call ptr @Ivy_ObjFanin0(ptr noundef %38)
  %40 = call i32 @Ivy_ManResetLevels_rec(ptr noundef %39)
  %41 = load ptr, ptr %3, align 8
  %42 = call ptr @Ivy_ObjFanin1(ptr noundef %41)
  %43 = call i32 @Ivy_ManResetLevels_rec(ptr noundef %42)
  %44 = load ptr, ptr %3, align 8
  %45 = call i32 @Ivy_ObjLevelNew(ptr noundef %44)
  %46 = load ptr, ptr %3, align 8
  %47 = getelementptr inbounds %struct.Ivy_Obj_t_, ptr %46, i32 0, i32 2
  %48 = load i32, ptr %47, align 8
  %49 = and i32 %45, 2097151
  %50 = shl i32 %49, 11
  %51 = and i32 %48, 2047
  %52 = or i32 %51, %50
  store i32 %52, ptr %47, align 8
  store i32 %49, ptr %2, align 4
  br label %53

53:                                               ; preds = %37, %26, %17
  %54 = load i32, ptr %2, align 4
  ret i32 %54
}