; Function Attrs: nofree nosync nounwind memory(readwrite, inaccessiblemem: none) uwtable
define range(i32 0, 2097152) i32 @Ivy_ManResetLevels_rec(ptr noundef captures(none) %0) local_unnamed_addr #5 {
  %2 = getelementptr inbounds nuw i8, ptr %0, i64 8
  %3 = load i32, ptr %2, align 8
  %.not = icmp ult i32 %3, 2048
  br i1 %.not, label %4, label %7

4:                                                ; preds = %1
  %5 = and i32 %3, 15
  switch i32 %5, label %6 [
    i32 4, label %7
    i32 1, label %7
  ]

6:                                                ; preds = %4
  %.val17 = load i32, ptr %0, align 8
  %.not21 = icmp eq i32 %.val17, 0
  br i1 %.not21, label %7, label %9

7:                                                ; preds = %4, %4, %6, %1
  %8 = lshr i32 %3, 11
  br label %common.ret23

9:                                                ; preds = %6
  %.not22 = icmp eq i32 %5, 7
  %10 = getelementptr i8, ptr %0, i64 16
  %.val14 = load ptr, ptr %10, align 8
  %11 = ptrtoint ptr %.val14 to i64
  %12 = and i64 %11, -2
  %13 = inttoptr i64 %12 to ptr
  %14 = tail call i32 @Ivy_ManResetLevels_rec(ptr noundef %13)
  br i1 %.not22, label %15, label %20

common.ret23:                                     ; preds = %15, %7, %20
  %common.ret23.op = phi i32 [ %44, %20 ], [ %14, %15 ], [ %8, %7 ]
  ret i32 %common.ret23.op

15:                                               ; preds = %9
  %16 = load i32, ptr %2, align 8
  %17 = shl nuw i32 %14, 11
  %18 = and i32 %16, 2047
  %19 = or disjoint i32 %18, %17
  store i32 %19, ptr %2, align 8
  br label %common.ret23

20:                                               ; preds = %9
  %21 = getelementptr i8, ptr %0, i64 24
  %.val15 = load ptr, ptr %21, align 8
  %22 = ptrtoint ptr %.val15 to i64
  %23 = and i64 %22, -2
  %24 = inttoptr i64 %23 to ptr
  %25 = tail call i32 @Ivy_ManResetLevels_rec(ptr noundef %24)
  %.val8.i = load i32, ptr %2, align 8
  %26 = and i32 %.val8.i, 15
  %27 = icmp eq i32 %26, 6
  %.val5.i = load ptr, ptr %10, align 8
  %28 = ptrtoint ptr %.val5.i to i64
  %29 = and i64 %28, -2
  %30 = inttoptr i64 %29 to ptr
  %31 = getelementptr inbounds nuw i8, ptr %30, i64 8
  %32 = load i32, ptr %31, align 8
  %33 = lshr i32 %32, 11
  %.val7.i = load ptr, ptr %21, align 8
  %34 = ptrtoint ptr %.val7.i to i64
  %35 = and i64 %34, -2
  %36 = inttoptr i64 %35 to ptr
  %37 = getelementptr inbounds nuw i8, ptr %36, i64 8
  %38 = load i32, ptr %37, align 8
  %39 = lshr i32 %38, 11
  %40 = icmp samesign ugt i32 %33, %39
  %spec.select.i = select i1 %40, ptr %30, ptr %36
  %.in.in.i = getelementptr inbounds nuw i8, ptr %spec.select.i, i64 8
  %.in.i = load i32, ptr %.in.in.i, align 8
  %41 = lshr i32 %.in.i, 11
  %42 = select i1 %27, i32 2, i32 1
  %43 = add nuw nsw i32 %41, %42
  %44 = and i32 %43, 2097151
  %45 = shl nuw i32 %44, 11
  %46 = and i32 %.val8.i, 2047
  %47 = or disjoint i32 %45, %46
  store i32 %47, ptr %2, align 8
  br label %common.ret23
}